target datalayout = "e-m:e-p270:32:32-p271:32:32-p272:64:64-i64:64-i128:128-f80:128-n8:16:32:64-S128"
target triple = "x86_64-pc-linux-gnu"

%struct.FT_Vector_ = type { i64, i64 }
%struct.FT_StrokerRec_ = type { i64, i64, %struct.FT_Vector_, i64, i8, i8, i64, %struct.FT_Vector_, i64, i8, i32, i32, i32, i64, i64, [2 x %struct.FT_StrokeBorderRec_], ptr }
%struct.FT_StrokeBorderRec_ = type { i32, i32, ptr, ptr, i8, i32, ptr, i8 }

; Function Attrs: nounwind uwtable
define internal void @ft_stroke_border_close(ptr noundef %0, i8 noundef zeroext %1) #0 {
  %3 = alloca ptr, align 8
  %4 = alloca i8, align 1
  %5 = alloca i32, align 4
  %6 = alloca i32, align 4
  %7 = alloca ptr, align 8
  %8 = alloca ptr, align 8
  %9 = alloca %struct.FT_Vector_, align 8
  %10 = alloca ptr, align 8
  %11 = alloca ptr, align 8
  %12 = alloca i8, align 1
  store ptr %0, ptr %3, align 8
  store i8 %1, ptr %4, align 1
  %13 = load ptr, ptr %3, align 8
  %14 = getelementptr inbounds %struct.FT_StrokeBorderRec_, ptr %13, i32 0, i32 5
  %15 = load i32, ptr %14, align 4
  store i32 %15, ptr %5, align 4
  %16 = load ptr, ptr %3, align 8
  %17 = getelementptr inbounds %struct.FT_StrokeBorderRec_, ptr %16, i32 0, i32 0
  %18 = load i32, ptr %17, align 8
  store i32 %18, ptr %6, align 4
  br label %19

19:                                               ; preds = %2
  br label %20

20:                                               ; preds = %19
  %21 = load i32, ptr %6, align 4
  %22 = load i32, ptr %5, align 4
  %23 = add i32 %22, 1
  %24 = icmp ule i32 %21, %23
  br i1 %24, label %25, label %29

25:                                               ; preds = %20
  %26 = load i32, ptr %5, align 4
  %27 = load ptr, ptr %3, align 8
  %28 = getelementptr inbounds %struct.FT_StrokeBorderRec_, ptr %27, i32 0, i32 0
  store i32 %26, ptr %28, align 8
  br label %145

29:                                               ; preds = %20
  %30 = load i32, ptr %6, align 4
  %31 = add i32 %30, -1
  store i32 %31, ptr %6, align 4
  %32 = load ptr, ptr %3, align 8
  %33 = getelementptr inbounds %struct.FT_StrokeBorderRec_, ptr %32, i32 0, i32 0
  store i32 %31, ptr %33, align 8
  %34 = load ptr, ptr %3, align 8
  %35 = getelementptr inbounds %struct.FT_StrokeBorderRec_, ptr %34, i32 0, i32 2
  %36 = load ptr, ptr %35, align 8
  %37 = load i32, ptr %5, align 4
  %38 = zext i32 %37 to i64
  %39 = getelementptr inbounds %struct.FT_Vector_, ptr %36, i64 %38
  %40 = load ptr, ptr %3, align 8
  %41 = getelementptr inbounds %struct.FT_StrokeBorderRec_, ptr %40, i32 0, i32 2
  %42 = load ptr, ptr %41, align 8
  %43 = load i32, ptr %6, align 4
  %44 = zext i32 %43 to i64
  %45 = getelementptr inbounds %struct.FT_Vector_, ptr %42, i64 %44
  call void @llvm.memcpy.p0.p0.i64(ptr align 8 %39, ptr align 8 %45, i64 16, i1 false)
  %46 = load ptr, ptr %3, align 8
  %47 = getelementptr inbounds %struct.FT_StrokeBorderRec_, ptr %46, i32 0, i32 3
  %48 = load ptr, ptr %47, align 8
  %49 = load i32, ptr %6, align 4
  %50 = zext i32 %49 to i64
  %51 = getelementptr inbounds i8, ptr %48, i64 %50
  %52 = load i8, ptr %51, align 1
  %53 = load ptr, ptr %3, align 8
  %54 = getelementptr inbounds %struct.FT_StrokeBorderRec_, ptr %53, i32 0, i32 3
  %55 = load ptr, ptr %54, align 8
  %56 = load i32, ptr %5, align 4
  %57 = zext i32 %56 to i64
  %58 = getelementptr inbounds i8, ptr %55, i64 %57
  store i8 %52, ptr %58, align 1
  %59 = load i8, ptr %4, align 1
  %60 = icmp ne i8 %59, 0
  br i1 %60, label %61, label %123

61:                                               ; preds = %29
  %62 = load ptr, ptr %3, align 8
  %63 = getelementptr inbounds %struct.FT_StrokeBorderRec_, ptr %62, i32 0, i32 2
  %64 = load ptr, ptr %63, align 8
  %65 = load i32, ptr %5, align 4
  %66 = zext i32 %65 to i64
  %67 = getelementptr inbounds %struct.FT_Vector_, ptr %64, i64 %66
  %68 = getelementptr inbounds %struct.FT_Vector_, ptr %67, i64 1
  store ptr %68, ptr %7, align 8
  %69 = load ptr, ptr %3, align 8
  %70 = getelementptr inbounds %struct.FT_StrokeBorderRec_, ptr %69, i32 0, i32 2
  %71 = load ptr, ptr %70, align 8
  %72 = load i32, ptr %6, align 4
  %73 = zext i32 %72 to i64
  %74 = getelementptr inbounds %struct.FT_Vector_, ptr %71, i64 %73
  %75 = getelementptr inbounds %struct.FT_Vector_, ptr %74, i64 -1
  store ptr %75, ptr %8, align 8
  br label %76

76:                                               ; preds = %85, %61
  %77 = load ptr, ptr %7, align 8
  %78 = load ptr, ptr %8, align 8
  %79 = icmp ult ptr %77, %78
  br i1 %79, label %80, label %90

80:                                               ; preds = %76
  %81 = load ptr, ptr %7, align 8
  call void @llvm.memcpy.p0.p0.i64(ptr align 8 %9, ptr align 8 %81, i64 16, i1 false)
  %82 = load ptr, ptr %7, align 8
  %83 = load ptr, ptr %8, align 8
  call void @llvm.memcpy.p0.p0.i64(ptr align 8 %82, ptr align 8 %83, i64 16, i1 false)
  %84 = load ptr, ptr %8, align 8
  call void @llvm.memcpy.p0.p0.i64(ptr align 8 %84, ptr align 8 %9, i64 16, i1 false)
  br label %85

85:                                               ; preds = %80
  %86 = load ptr, ptr %7, align 8
  %87 = getelementptr inbounds %struct.FT_Vector_, ptr %86, i32 1
  store ptr %87, ptr %7, align 8
  %88 = load ptr, ptr %8, align 8
  %89 = getelementptr inbounds %struct.FT_Vector_, ptr %88, i32 -1
  store ptr %89, ptr %8, align 8
  br label %76, !llvm.loop !11

90:                                               ; preds = %76
  %91 = load ptr, ptr %3, align 8
  %92 = getelementptr inbounds %struct.FT_StrokeBorderRec_, ptr %91, i32 0, i32 3
  %93 = load ptr, ptr %92, align 8
  %94 = load i32, ptr %5, align 4
  %95 = zext i32 %94 to i64
  %96 = getelementptr inbounds i8, ptr %93, i64 %95
  %97 = getelementptr inbounds i8, ptr %96, i64 1
  store ptr %97, ptr %10, align 8
  %98 = load ptr, ptr %3, align 8
  %99 = getelementptr inbounds %struct.FT_StrokeBorderRec_, ptr %98, i32 0, i32 3
  %100 = load ptr, ptr %99, align 8
  %101 = load i32, ptr %6, align 4
  %102 = zext i32 %101 to i64
  %103 = getelementptr inbounds i8, ptr %100, i64 %102
  %104 = getelementptr inbounds i8, ptr %103, i64 -1
  store ptr %104, ptr %11, align 8
  br label %105

105:                                              ; preds = %117, %90
  %106 = load ptr, ptr %10, align 8
  %107 = load ptr, ptr %11, align 8
  %108 = icmp ult ptr %106, %107
  br i1 %108, label %109, label %122

109:                                              ; preds = %105
  %110 = load ptr, ptr %10, align 8
  %111 = load i8, ptr %110, align 1
  store i8 %111, ptr %12, align 1
  %112 = load ptr, ptr %11, align 8
  %113 = load i8, ptr %112, align 1
  %114 = load ptr, ptr %10, align 8
  store i8 %113, ptr %114, align 1
  %115 = load i8, ptr %12, align 1
  %116 = load ptr, ptr %11, align 8
  store i8 %115, ptr %116, align 1
  br label %117

117:                                              ; preds = %109
  %118 = load ptr, ptr %10, align 8
  %119 = getelementptr inbounds i8, ptr %118, i32 1
  store ptr %119, ptr %10, align 8
  %120 = load ptr, ptr %11, align 8
  %121 = getelementptr inbounds i8, ptr %120, i32 -1
  store ptr %121, ptr %11, align 8
  br label %105, !llvm.loop !12

122:                                              ; preds = %105
  br label %123

123:                                              ; preds = %122, %29
  %124 = load ptr, ptr %3, align 8
  %125 = getelementptr inbounds %struct.FT_StrokeBorderRec_, ptr %124, i32 0, i32 3
  %126 = load ptr, ptr %125, align 8
  %127 = load i32, ptr %5, align 4
  %128 = zext i32 %127 to i64
  %129 = getelementptr inbounds i8, ptr %126, i64 %128
  %130 = load i8, ptr %129, align 1
  %131 = zext i8 %130 to i32
  %132 = or i32 %131, 4
  %133 = trunc i32 %132 to i8
  store i8 %133, ptr %129, align 1
  %134 = load ptr, ptr %3, align 8
  %135 = getelementptr inbounds %struct.FT_StrokeBorderRec_, ptr %134, i32 0, i32 3
  %136 = load ptr, ptr %135, align 8
  %137 = load i32, ptr %6, align 4
  %138 = sub i32 %137, 1
  %139 = zext i32 %138 to i64
  %140 = getelementptr inbounds i8, ptr %136, i64 %139
  %141 = load i8, ptr %140, align 1
  %142 = zext i8 %141 to i32
  %143 = or i32 %142, 8
  %144 = trunc i32 %143 to i8
  store i8 %144, ptr %140, align 1
  br label %145

145:                                              ; preds = %123, %25
  %146 = load ptr, ptr %3, align 8
  %147 = getelementptr inbounds %struct.FT_StrokeBorderRec_, ptr %146, i32 0, i32 5
  store i32 -1, ptr %147, align 4
  %148 = load ptr, ptr %3, align 8
  %149 = getelementptr inbounds %struct.FT_StrokeBorderRec_, ptr %148, i32 0, i32 4
  store i8 0, ptr %149, align 8
  ret void
}

; Function Attrs: nounwind uwtable
define internal i32 @ft_stroke_border_moveto(ptr noundef %0, ptr noundef %1) #0 {
  %3 = alloca ptr, align 8
  %4 = alloca ptr, align 8
  store ptr %0, ptr %3, align 8
  store ptr %1, ptr %4, align 8
  %5 = load ptr, ptr %3, align 8
  %6 = getelementptr inbounds %struct.FT_StrokeBorderRec_, ptr %5, i32 0, i32 5
  %7 = load i32, ptr %6, align 4
  %8 = icmp sge i32 %7, 0
  br i1 %8, label %9, label %11

9:                                                ; preds = %2
  %10 = load ptr, ptr %3, align 8
  call void @ft_stroke_border_close(ptr noundef %10, i8 noundef zeroext 0)
  br label %11

11:                                               ; preds = %9, %2
  %12 = load ptr, ptr %3, align 8
  %13 = getelementptr inbounds %struct.FT_StrokeBorderRec_, ptr %12, i32 0, i32 0
  %14 = load i32, ptr %13, align 8
  %15 = load ptr, ptr %3, align 8
  %16 = getelementptr inbounds %struct.FT_StrokeBorderRec_, ptr %15, i32 0, i32 5
  store i32 %14, ptr %16, align 4
  %17 = load ptr, ptr %3, align 8
  %18 = getelementptr inbounds %struct.FT_StrokeBorderRec_, ptr %17, i32 0, i32 4
  store i8 0, ptr %18, align 8
  %19 = load ptr, ptr %3, align 8
  %20 = load ptr, ptr %4, align 8
  %21 = call i32 @ft_stroke_border_lineto(ptr noundef %19, ptr noundef %20, i8 noundef zeroext 0)
  ret i32 %21
}

; Function Attrs: nounwind uwtable
define internal i32 @ft_stroker_subpath_start(ptr noundef %0, i64 noundef %1, i64 noundef %2) #0 {
  %4 = alloca ptr, align 8
  %5 = alloca i64, align 8
  %6 = alloca i64, align 8
  %7 = alloca %struct.FT_Vector_, align 8
  %8 = alloca %struct.FT_Vector_, align 8
  %9 = alloca i32, align 4
  %10 = alloca ptr, align 8
  store ptr %0, ptr %4, align 8
  store i64 %1, ptr %5, align 8
  store i64 %2, ptr %6, align 8
  %11 = load ptr, ptr %4, align 8
  %12 = getelementptr inbounds %struct.FT_StrokerRec_, ptr %11, i32 0, i32 14
  %13 = load i64, ptr %12, align 8
  %14 = load i64, ptr %5, align 8
  %15 = add nsw i64 %14, 5898240
  call void @FT_Vector_From_Polar(ptr noundef %7, i64 noundef %13, i64 noundef %15)
  %16 = load ptr, ptr %4, align 8
  %17 = getelementptr inbounds %struct.FT_StrokerRec_, ptr %16, i32 0, i32 2
  %18 = getelementptr inbounds %struct.FT_Vector_, ptr %17, i32 0, i32 0
  %19 = load i64, ptr %18, align 8
  %20 = getelementptr inbounds %struct.FT_Vector_, ptr %7, i32 0, i32 0
  %21 = load i64, ptr %20, align 8
  %22 = add nsw i64 %19, %21
  %23 = getelementptr inbounds %struct.FT_Vector_, ptr %8, i32 0, i32 0
  store i64 %22, ptr %23, align 8
  %24 = load ptr, ptr %4, align 8
  %25 = getelementptr inbounds %struct.FT_StrokerRec_, ptr %24, i32 0, i32 2
  %26 = getelementptr inbounds %struct.FT_Vector_, ptr %25, i32 0, i32 1
  %27 = load i64, ptr %26, align 8
  %28 = getelementptr inbounds %struct.FT_Vector_, ptr %7, i32 0, i32 1
  %29 = load i64, ptr %28, align 8
  %30 = add nsw i64 %27, %29
  %31 = getelementptr inbounds %struct.FT_Vector_, ptr %8, i32 0, i32 1
  store i64 %30, ptr %31, align 8
  %32 = load ptr, ptr %4, align 8
  %33 = getelementptr inbounds %struct.FT_StrokerRec_, ptr %32, i32 0, i32 15
  %34 = getelementptr inbounds [2 x %struct.FT_StrokeBorderRec_], ptr %33, i64 0, i64 0
  store ptr %34, ptr %10, align 8
  %35 = load ptr, ptr %10, align 8
  %36 = call i32 @ft_stroke_border_moveto(ptr noundef %35, ptr noundef %8)
  store i32 %36, ptr %9, align 4
  %37 = load i32, ptr %9, align 4
  %38 = icmp ne i32 %37, 0
  br i1 %38, label %39, label %40

39:                                               ; preds = %3
  br label %69

40:                                               ; preds = %3
  %41 = load ptr, ptr %4, align 8
  %42 = getelementptr inbounds %struct.FT_StrokerRec_, ptr %41, i32 0, i32 2
  %43 = getelementptr inbounds %struct.FT_Vector_, ptr %42, i32 0, i32 0
  %44 = load i64, ptr %43, align 8
  %45 = getelementptr inbounds %struct.FT_Vector_, ptr %7, i32 0, i32 0
  %46 = load i64, ptr %45, align 8
  %47 = sub nsw i64 %44, %46
  %48 = getelementptr inbounds %struct.FT_Vector_, ptr %8, i32 0, i32 0
  store i64 %47, ptr %48, align 8
  %49 = load ptr, ptr %4, align 8
  %50 = getelementptr inbounds %struct.FT_StrokerRec_, ptr %49, i32 0, i32 2
  %51 = getelementptr inbounds %struct.FT_Vector_, ptr %50, i32 0, i32 1
  %52 = load i64, ptr %51, align 8
  %53 = getelementptr inbounds %struct.FT_Vector_, ptr %7, i32 0, i32 1
  %54 = load i64, ptr %53, align 8
  %55 = sub nsw i64 %52, %54
  %56 = getelementptr inbounds %struct.FT_Vector_, ptr %8, i32 0, i32 1
  store i64 %55, ptr %56, align 8
  %57 = load ptr, ptr %10, align 8
  %58 = getelementptr inbounds %struct.FT_StrokeBorderRec_, ptr %57, i32 1
  store ptr %58, ptr %10, align 8
  %59 = load ptr, ptr %10, align 8
  %60 = call i32 @ft_stroke_border_moveto(ptr noundef %59, ptr noundef %8)
  store i32 %60, ptr %9, align 4
  %61 = load i64, ptr %5, align 8
  %62 = load ptr, ptr %4, align 8
  %63 = getelementptr inbounds %struct.FT_StrokerRec_, ptr %62, i32 0, i32 6
  store i64 %61, ptr %63, align 8
  %64 = load ptr, ptr %4, align 8
  %65 = getelementptr inbounds %struct.FT_StrokerRec_, ptr %64, i32 0, i32 4
  store i8 0, ptr %65, align 8
  %66 = load i64, ptr %6, align 8
  %67 = load ptr, ptr %4, align 8
  %68 = getelementptr inbounds %struct.FT_StrokerRec_, ptr %67, i32 0, i32 8
  store i64 %66, ptr %68, align 8
  br label %69

69:                                               ; preds = %40, %39
  %70 = load i32, ptr %9, align 4
  ret i32 %70
}