; Function Attrs: nounwind uwtable
define internal fastcc i32 @ft_stroker_subpath_start(ptr noundef nonnull captures(none) initializes((136, 137)) %0, i64 noundef %1, i64 noundef %2) unnamed_addr #0 {
  %4 = alloca %struct.FT_Vector_, align 8
  %5 = alloca %struct.FT_Vector_, align 8
  %6 = getelementptr inbounds nuw i8, ptr %0, i64 104
  %7 = load i64, ptr %6, align 8
  %8 = add nsw i64 %1, 5898240
  call void @FT_Vector_From_Polar(ptr noundef nonnull %4, i64 noundef %7, i64 noundef %8) #11
  %9 = getelementptr inbounds nuw i8, ptr %0, i64 16
  %10 = load i64, ptr %9, align 8
  %11 = load i64, ptr %4, align 8
  %12 = add nsw i64 %11, %10
  store i64 %12, ptr %5, align 8
  %13 = getelementptr inbounds nuw i8, ptr %0, i64 24
  %14 = load i64, ptr %13, align 8
  %15 = getelementptr inbounds nuw i8, ptr %4, i64 8
  %16 = load i64, ptr %15, align 8
  %17 = add nsw i64 %16, %14
  %18 = getelementptr inbounds nuw i8, ptr %5, i64 8
  store i64 %17, ptr %18, align 8
  %19 = getelementptr inbounds nuw i8, ptr %0, i64 112
  %20 = getelementptr inbounds nuw i8, ptr %0, i64 140
  %21 = load i32, ptr %20, align 4
  %22 = icmp sgt i32 %21, -1
  %.pre7.i = load i32, ptr %19, align 8
  br i1 %22, label %23, label %ft_stroke_border_moveto.exit

23:                                               ; preds = %3
  %24 = add nuw i32 %21, 1
  %.not.i.i = icmp ugt i32 %.pre7.i, %24
  br i1 %.not.i.i, label %26, label %25

25:                                               ; preds = %23
  store i32 %21, ptr %19, align 8
  br label %ft_stroke_border_moveto.exit

26:                                               ; preds = %23
  %27 = add i32 %.pre7.i, -1
  store i32 %27, ptr %19, align 8
  %28 = getelementptr inbounds nuw i8, ptr %0, i64 120
  %29 = load ptr, ptr %28, align 8
  %30 = zext nneg i32 %21 to i64
  %31 = getelementptr inbounds nuw %struct.FT_Vector_, ptr %29, i64 %30
  %32 = zext i32 %27 to i64
  %33 = getelementptr inbounds nuw %struct.FT_Vector_, ptr %29, i64 %32
  call void @llvm.memcpy.p0.p0.i64(ptr noundef nonnull align 8 dereferenceable(16) %31, ptr noundef nonnull align 8 dereferenceable(16) %33, i64 16, i1 false)
  %34 = getelementptr inbounds nuw i8, ptr %0, i64 128
  %35 = load ptr, ptr %34, align 8
  %36 = getelementptr inbounds nuw i8, ptr %35, i64 %32
  %37 = load i8, ptr %36, align 1
  %38 = getelementptr inbounds nuw i8, ptr %35, i64 %30
  store i8 %37, ptr %38, align 1
  %39 = load ptr, ptr %34, align 8
  %40 = getelementptr inbounds nuw i8, ptr %39, i64 %30
  %41 = load i8, ptr %40, align 1
  %42 = or i8 %41, 4
  store i8 %42, ptr %40, align 1
  %43 = load ptr, ptr %34, align 8
  %44 = add i32 %.pre7.i, -2
  %45 = zext i32 %44 to i64
  %46 = getelementptr inbounds nuw i8, ptr %43, i64 %45
  %47 = load i8, ptr %46, align 1
  %48 = or i8 %47, 8
  store i8 %48, ptr %46, align 1
  %.pre.pre.i = load i32, ptr %19, align 8
  br label %ft_stroke_border_moveto.exit

ft_stroke_border_moveto.exit:                     ; preds = %3, %25, %26
  %49 = phi i32 [ %.pre7.i, %3 ], [ %21, %25 ], [ %.pre.pre.i, %26 ]
  store i32 %49, ptr %20, align 4
  %50 = getelementptr inbounds nuw i8, ptr %0, i64 136
  store i8 0, ptr %50, align 8
  %51 = call fastcc i32 @ft_stroke_border_lineto(ptr noundef nonnull %19, ptr noundef nonnull readonly %5, i8 noundef zeroext 0)
  %.not = icmp eq i32 %51, 0
  br i1 %.not, label %52, label %95

52:                                               ; preds = %ft_stroke_border_moveto.exit
  %53 = load i64, ptr %9, align 8
  %54 = load i64, ptr %4, align 8
  %55 = sub nsw i64 %53, %54
  store i64 %55, ptr %5, align 8
  %56 = load i64, ptr %13, align 8
  %57 = load i64, ptr %15, align 8
  %58 = sub nsw i64 %56, %57
  store i64 %58, ptr %18, align 8
  %59 = getelementptr inbounds nuw i8, ptr %0, i64 160
  %60 = getelementptr inbounds nuw i8, ptr %0, i64 188
  %61 = load i32, ptr %60, align 4
  %62 = icmp sgt i32 %61, -1
  %.pre7.i17 = load i32, ptr %59, align 8
  br i1 %62, label %63, label %ft_stroke_border_moveto.exit20

63:                                               ; preds = %52
  %64 = add nuw i32 %61, 1
  %.not.i.i18 = icmp ugt i32 %.pre7.i17, %64
  br i1 %.not.i.i18, label %66, label %65

65:                                               ; preds = %63
  store i32 %61, ptr %59, align 8
  br label %ft_stroke_border_moveto.exit20

66:                                               ; preds = %63
  %67 = add i32 %.pre7.i17, -1
  store i32 %67, ptr %59, align 8
  %68 = getelementptr inbounds nuw i8, ptr %0, i64 168
  %69 = load ptr, ptr %68, align 8
  %70 = zext nneg i32 %61 to i64
  %71 = getelementptr inbounds nuw %struct.FT_Vector_, ptr %69, i64 %70
  %72 = zext i32 %67 to i64
  %73 = getelementptr inbounds nuw %struct.FT_Vector_, ptr %69, i64 %72
  call void @llvm.memcpy.p0.p0.i64(ptr noundef nonnull align 8 dereferenceable(16) %71, ptr noundef nonnull align 8 dereferenceable(16) %73, i64 16, i1 false)
  %74 = getelementptr inbounds nuw i8, ptr %0, i64 176
  %75 = load ptr, ptr %74, align 8
  %76 = getelementptr inbounds nuw i8, ptr %75, i64 %72
  %77 = load i8, ptr %76, align 1
  %78 = getelementptr inbounds nuw i8, ptr %75, i64 %70
  store i8 %77, ptr %78, align 1
  %79 = load ptr, ptr %74, align 8
  %80 = getelementptr inbounds nuw i8, ptr %79, i64 %70
  %81 = load i8, ptr %80, align 1
  %82 = or i8 %81, 4
  store i8 %82, ptr %80, align 1
  %83 = load ptr, ptr %74, align 8
  %84 = add i32 %.pre7.i17, -2
  %85 = zext i32 %84 to i64
  %86 = getelementptr inbounds nuw i8, ptr %83, i64 %85
  %87 = load i8, ptr %86, align 1
  %88 = or i8 %87, 8
  store i8 %88, ptr %86, align 1
  %.pre.pre.i19 = load i32, ptr %59, align 8
  br label %ft_stroke_border_moveto.exit20

ft_stroke_border_moveto.exit20:                   ; preds = %52, %65, %66
  %89 = phi i32 [ %.pre7.i17, %52 ], [ %61, %65 ], [ %.pre.pre.i19, %66 ]
  store i32 %89, ptr %60, align 4
  %90 = getelementptr inbounds nuw i8, ptr %0, i64 184
  store i8 0, ptr %90, align 8
  %91 = call fastcc i32 @ft_stroke_border_lineto(ptr noundef nonnull %59, ptr noundef nonnull readonly %5, i8 noundef zeroext 0)
  %92 = getelementptr inbounds nuw i8, ptr %0, i64 48
  store i64 %1, ptr %92, align 8
  %93 = getelementptr inbounds nuw i8, ptr %0, i64 40
  store i8 0, ptr %93, align 8
  %94 = getelementptr inbounds nuw i8, ptr %0, i64 72
  store i64 %2, ptr %94, align 8
  br label %95

95:                                               ; preds = %ft_stroke_border_moveto.exit, %ft_stroke_border_moveto.exit20
  %.0 = phi i32 [ %51, %ft_stroke_border_moveto.exit ], [ %91, %ft_stroke_border_moveto.exit20 ]
  ret i32 %.0
}